; Function Attrs: mustprogress nounwind uwtable
define internal fastcc void @_ZN12_GLOBAL__N_122DOCTEST_ANON_CLASS_101D2Ev(ptr noundef nonnull align 8 dereferenceable(72) %0) unnamed_addr #5 align 2 personality ptr @__gxx_personality_v0 {
  %2 = getelementptr inbounds i8, ptr %0, i64 16
  %3 = load ptr, ptr %2, align 8
  %.not.i.i.i.i = icmp eq ptr %3, null
  br i1 %.not.i.i.i.i, label %_ZN18JsonEncoderFixtureD2Ev.exit, label %4

4:                                                ; preds = %1
  tail call void @_ZdlPv(ptr noundef nonnull %3) #12
  tail call void @llvm.memset.p0.i64(ptr noundef nonnull align 8 dereferenceable(16) %2, i8 0, i64 16, i1 false)
  br label %_ZN18JsonEncoderFixtureD2Ev.exit

_ZN18JsonEncoderFixtureD2Ev.exit:                 ; preds = %1, %4
  tail call void @_ZN4Luau9AllocatorD1Ev(ptr noundef nonnull align 8 dereferenceable(16) %0) #12
  ret void
}